; Function Attrs: nofree nounwind uwtable
define range(i32 -2147483647, -2147483648) i32 @Gia_ManPoMffcSize(ptr noundef initializes((144, 152)) %0) local_unnamed_addr #15 {
  tail call void @Gia_ManCreateRefs(ptr noundef %0)
  %2 = getelementptr i8, ptr %0, i64 32
  %.val = load ptr, ptr %2, align 8
  %3 = getelementptr i8, ptr %0, i64 72
  %.val3 = load ptr, ptr %3, align 8
  %4 = getelementptr i8, ptr %.val3, i64 8
  %.val3.val = load ptr, ptr %4, align 8
  %5 = load i32, ptr %.val3.val, align 4
  %6 = sext i32 %5 to i64
  %7 = getelementptr inbounds %struct.Gia_Obj_t_, ptr %.val, i64 %6
  %8 = load i64, ptr %7, align 4
  %9 = and i64 %8, 536870911
  %10 = sub nsw i64 0, %9
  %11 = getelementptr inbounds %struct.Gia_Obj_t_, ptr %7, i64 %10
  %12 = tail call i32 @Gia_NodeDeref_rec(ptr noundef %0, ptr noundef nonnull %11)
  ret i32 %12
}